target datalayout = "e-m:e-p270:32:32-p271:32:32-p272:64:64-i64:64-i128:128-f80:128-n8:16:32:64-S128"
target triple = "x86_64-pc-linux-gnu"

%struct.WebPMux = type { ptr, ptr, ptr, ptr, ptr, ptr, ptr, i32, i32 }

; Function Attrs: nounwind uwtable
define internal void @MuxInit(ptr noundef %0) #0 {
  %2 = alloca ptr, align 8
  store ptr %0, ptr %2, align 8, !tbaa !7
  %3 = load ptr, ptr %2, align 8, !tbaa !7
  call void @llvm.memset.p0.i64(ptr align 8 %3, i8 0, i64 64, i1 false)
  %4 = load ptr, ptr %2, align 8, !tbaa !7
  %5 = getelementptr inbounds nuw %struct.WebPMux, ptr %4, i32 0, i32 7
  store i32 0, ptr %5, align 8, !tbaa !10
  %6 = load ptr, ptr %2, align 8, !tbaa !7
  %7 = getelementptr inbounds nuw %struct.WebPMux, ptr %6, i32 0, i32 8
  store i32 0, ptr %7, align 4, !tbaa !14
  ret void
}

; Function Attrs: nounwind uwtable
define ptr @WebPNewInternal(i32 noundef %0) #0 {
  %2 = alloca ptr, align 8
  %3 = alloca i32, align 4
  %4 = alloca ptr, align 8
  store i32 %0, ptr %3, align 4, !tbaa !3
  %5 = load i32, ptr %3, align 4, !tbaa !3
  %6 = ashr i32 %5, 8
  %7 = icmp ne i32 %6, 1
  br i1 %7, label %8, label %9

8:                                                ; preds = %1
  store ptr null, ptr %2, align 8
  br label %17

9:                                                ; preds = %1
  call void @llvm.lifetime.start.p0(i64 8, ptr %4) #7
  %10 = call ptr @WebPSafeMalloc(i64 noundef 1, i64 noundef 64)
  store ptr %10, ptr %4, align 8, !tbaa !7
  %11 = load ptr, ptr %4, align 8, !tbaa !7
  %12 = icmp ne ptr %11, null
  br i1 %12, label %13, label %15

13:                                               ; preds = %9
  %14 = load ptr, ptr %4, align 8, !tbaa !7
  call void @MuxInit(ptr noundef %14)
  br label %15

15:                                               ; preds = %13, %9
  %16 = load ptr, ptr %4, align 8, !tbaa !7
  store ptr %16, ptr %2, align 8
  call void @llvm.lifetime.end.p0(i64 8, ptr %4) #7
  br label %17

17:                                               ; preds = %15, %8
  %18 = load ptr, ptr %2, align 8
  ret ptr %18
}