; Function Attrs: nounwind uwtable
define ptr @WebPNewInternal(i32 noundef %0) local_unnamed_addr #0 {
  %.mask = and i32 %0, -256
  %.not = icmp eq i32 %.mask, 256
  br i1 %.not, label %2, label %5

2:                                                ; preds = %1
  %3 = tail call ptr @WebPSafeMalloc(i64 noundef 1, i64 noundef 64) #7
  %.not5 = icmp eq ptr %3, null
  br i1 %.not5, label %5, label %4

4:                                                ; preds = %2
  tail call void @llvm.memset.p0.i64(ptr noundef nonnull align 8 dereferenceable(64) %3, i8 0, i64 64, i1 false)
  br label %5

5:                                                ; preds = %2, %4, %1
  %.0 = phi ptr [ null, %1 ], [ %3, %4 ], [ null, %2 ]
  ret ptr %.0
}